target datalayout = "e-m:e-p270:32:32-p271:32:32-p272:64:64-i64:64-i128:128-f80:128-n8:16:32:64-S128"
target triple = "x86_64-pc-linux-gnu"

%struct.rb_data_type_struct = type { ptr, %struct.anon, ptr, ptr, i64 }
%struct.anon = type { ptr, ptr, ptr, ptr, [1 x ptr] }
%struct.RTypedData = type { %struct.RBasic, ptr, i64, ptr }
%struct.RBasic = type { i64, i64 }

@ossl_digest_type = internal constant %struct.rb_data_type_struct { ptr @.str.19, %struct.anon { ptr null, ptr @ossl_digest_free, ptr null, ptr null, [1 x ptr] zeroinitializer }, ptr null, ptr null, i64 33 }, align 8
@cDigest = internal global i64 0, align 8
@eDigestError = internal global i64 0, align 8
@.str.2 = private unnamed_addr constant [15 x i8] c"EVP_MD_CTX_new\00", align 1
@.str.3 = private unnamed_addr constant [29 x i8] c"Digest initialization failed\00", align 1

; Function Attrs: nounwind sspstrong uwtable
define internal i64 @ossl_digest_alloc(i64 noundef %0) #0 {
  %2 = alloca i64, align 8
  store i64 %0, ptr %2, align 8, !tbaa !6
  %3 = load i64, ptr %2, align 8, !tbaa !6
  %4 = call i64 @rb_data_typed_object_wrap(i64 noundef %3, ptr noundef null, ptr noundef @ossl_digest_type)
  ret i64 %4
}

; Function Attrs: nounwind sspstrong uwtable
define i64 @ossl_digest_new(ptr noundef %0) #0 {
  %2 = alloca ptr, align 8
  %3 = alloca i64, align 8
  %4 = alloca ptr, align 8
  store ptr %0, ptr %2, align 8, !tbaa !15
  call void @llvm.lifetime.start.p0(i64 8, ptr %3) #15
  call void @llvm.lifetime.start.p0(i64 8, ptr %4) #15
  %5 = load i64, ptr @cDigest, align 8, !tbaa !6
  %6 = call i64 @ossl_digest_alloc(i64 noundef %5)
  store i64 %6, ptr %3, align 8, !tbaa !6
  %7 = call ptr @EVP_MD_CTX_new()
  store ptr %7, ptr %4, align 8, !tbaa !17
  %8 = load ptr, ptr %4, align 8, !tbaa !17
  %9 = icmp ne ptr %8, null
  br i1 %9, label %12, label %10

10:                                               ; preds = %1
  %11 = load i64, ptr @eDigestError, align 8, !tbaa !6
  call void (i64, ptr, ...) @ossl_raise(i64 noundef %11, ptr noundef @.str.2) #17
  unreachable

12:                                               ; preds = %1
  %13 = load ptr, ptr %4, align 8, !tbaa !17
  %14 = load i64, ptr %3, align 8, !tbaa !6
  %15 = inttoptr i64 %14 to ptr
  %16 = getelementptr inbounds nuw %struct.RTypedData, ptr %15, i32 0, i32 3
  store ptr %13, ptr %16, align 8, !tbaa !21
  %17 = load ptr, ptr %4, align 8, !tbaa !17
  %18 = load ptr, ptr %2, align 8, !tbaa !15
  %19 = call i32 @EVP_DigestInit_ex(ptr noundef %17, ptr noundef %18, ptr noundef null)
  %20 = icmp ne i32 %19, 0
  br i1 %20, label %23, label %21

21:                                               ; preds = %12
  %22 = load i64, ptr @eDigestError, align 8, !tbaa !6
  call void (i64, ptr, ...) @ossl_raise(i64 noundef %22, ptr noundef @.str.3) #17
  unreachable

23:                                               ; preds = %12
  %24 = load i64, ptr %3, align 8, !tbaa !6
  call void @llvm.lifetime.end.p0(i64 8, ptr %4) #15
  call void @llvm.lifetime.end.p0(i64 8, ptr %3) #15
  ret i64 %24
}