; Function Attrs: nounwind sspstrong uwtable
define i64 @ossl_digest_new(ptr noundef %0) local_unnamed_addr #0 {
  %2 = load i64, ptr @cDigest, align 8, !tbaa !6
  %3 = tail call i64 @rb_data_typed_object_wrap(i64 noundef %2, ptr noundef null, ptr noundef nonnull @ossl_digest_type) #4
  %4 = tail call ptr @EVP_MD_CTX_new() #4
  %.not = icmp eq ptr %4, null
  br i1 %.not, label %5, label %7

5:                                                ; preds = %1
  %6 = load i64, ptr @eDigestError, align 8, !tbaa !6
  tail call void (i64, ptr, ...) @ossl_raise(i64 noundef %6, ptr noundef nonnull @.str.2) #5
  unreachable

7:                                                ; preds = %1
  %8 = inttoptr i64 %3 to ptr
  %9 = getelementptr inbounds nuw i8, ptr %8, i64 32
  store ptr %4, ptr %9, align 8, !tbaa !12
  %10 = tail call i32 @EVP_DigestInit_ex(ptr noundef nonnull %4, ptr noundef %0, ptr noundef null) #4
  %.not5 = icmp eq i32 %10, 0
  br i1 %.not5, label %11, label %13

11:                                               ; preds = %7
  %12 = load i64, ptr @eDigestError, align 8, !tbaa !6
  tail call void (i64, ptr, ...) @ossl_raise(i64 noundef %12, ptr noundef nonnull @.str.3) #5
  unreachable

13:                                               ; preds = %7
  ret i64 %3
}